target datalayout = "e-m:e-p270:32:32-p271:32:32-p272:64:64-i64:64-i128:128-f80:128-n8:16:32:64-S128"
target triple = "x86_64-pc-linux-gnu"

%struct.expert_field = type { i32, i32 }
%struct._sv_frame_data = type { i16, i8, i8, [20 x %struct._sv_phs_meas], i16 }
%struct._sv_phs_meas = type { i32, i32 }
%struct._asn1_ctx_t = type { i32, i32, i8, ptr, ptr, ptr, ptr, ptr, %struct.anon, %struct.anon.2, %struct.anon.3, ptr }
%struct.anon = type { i32, i8, i8, i8, ptr, ptr, i32, i32, ptr, ptr, ptr, %union.anon }
%union.anon = type { %struct.anon.0 }
%struct.anon.0 = type { ptr }
%struct.anon.2 = type { ptr, ptr, ptr }
%struct.anon.3 = type { i32, i8, ptr, i32, i32, ptr, ptr, ptr, %union.anon.4 }
%union.anon.4 = type { %struct.anon.5 }
%struct.anon.5 = type { ptr }
%struct._packet_info = type { ptr, ptr, i32, i32, %struct.nstime_t, %struct.nstime_t, %struct.nstime_t, i8, ptr, ptr, ptr, ptr, %struct._address, %struct._address, %struct._address, %struct._address, %struct._address, %struct._address, i32, ptr, i8, [3 x i8], %struct.anon.7, i32, i32, i32, i32, ptr, i8, ptr, ptr, i16, i16, i32, i32, i16, i32, i32, ptr, ptr, ptr, i8, i8, i16, i16, i16, i32, i16, i16, ptr, ptr, ptr, ptr, ptr, i32, i32 }
%struct.nstime_t = type { i64, i32 }
%struct._address = type { i32, i32, ptr, ptr }
%struct.anon.7 = type { i8, [3 x i8] }

@hf_sv_appid = internal global i32 0, align 4
@hf_sv_length = internal global i32 0, align 4
@hf_sv_reserve1 = internal global i32 0, align 4
@hf_sv_reserve2 = internal global i32 0, align 4
@ett_sv = internal global i32 0, align 4
@ett_reserve1 = internal global i32 0, align 4
@ett_sv_SampledValues = internal global i32 0, align 4
@ei_sv_zero_pdu = internal global %struct.expert_field zeroinitializer, align 4
@.str.84 = private unnamed_addr constant [24 x i8] c"IEC61850 Sampled Values\00", align 1
@proto_sv = internal global i32 0, align 4
@sv_tap = internal global i32 0, align 4
@dissect_sv.reserve1_flags = internal constant [2 x ptr] [ptr @hf_sv_reserve1_s_bit, ptr null], align 16
@sv_data = internal global %struct._sv_frame_data zeroinitializer, align 4

; Function Attrs: null_pointer_is_valid sspstrong uwtable
define internal i32 @dissect_sv_SampledValues(i1 noundef zeroext %0, ptr noundef %1, i32 noundef %2, ptr noundef %3, ptr noundef %4, i32 noundef %5) #0 {
  %7 = alloca i8, align 1
  %8 = alloca ptr, align 8
  %9 = alloca i32, align 4
  %10 = alloca ptr, align 8
  %11 = alloca ptr, align 8
  %12 = alloca i32, align 4
  %13 = zext i1 %0 to i8
  store i8 %13, ptr %7, align 1
  store ptr %1, ptr %8, align 8
  store i32 %2, ptr %9, align 4
  store ptr %3, ptr %10, align 8
  store ptr %4, ptr %11, align 8
  store i32 %5, ptr %12, align 4
  %14 = load ptr, ptr %10, align 8
  %15 = load ptr, ptr %11, align 8
  %16 = load ptr, ptr %8, align 8
  %17 = load i32, ptr %9, align 4
  %18 = load i32, ptr %12, align 4
  %19 = load i32, ptr @ett_sv_SampledValues, align 4
  %20 = call i32 @dissect_ber_choice(ptr noundef %14, ptr noundef %15, ptr noundef %16, i32 noundef %17, ptr noundef @SampledValues_choice, i32 noundef %18, i32 noundef %19, ptr noundef null)
  store i32 %20, ptr %9, align 4
  %21 = load i32, ptr %9, align 4
  ret i32 %21
}

; Function Attrs: null_pointer_is_valid sspstrong uwtable
define internal i32 @dissect_sv(ptr noundef %0, ptr noundef %1, ptr noundef %2, ptr noundef %3) #0 {
  %5 = alloca ptr, align 8
  %6 = alloca ptr, align 8
  %7 = alloca ptr, align 8
  %8 = alloca ptr, align 8
  %9 = alloca i32, align 4
  %10 = alloca i32, align 4
  %11 = alloca i32, align 4
  %12 = alloca ptr, align 8
  %13 = alloca ptr, align 8
  %14 = alloca %struct._asn1_ctx_t, align 8
  store ptr %0, ptr %5, align 8
  store ptr %1, ptr %6, align 8
  store ptr %2, ptr %7, align 8
  store ptr %3, ptr %8, align 8
  call void @llvm.lifetime.start.p0(i64 4, ptr %9) #3
  store i32 0, ptr %9, align 4
  call void @llvm.lifetime.start.p0(i64 4, ptr %10) #3
  call void @llvm.lifetime.start.p0(i64 4, ptr %11) #3
  store i32 0, ptr %11, align 4
  call void @llvm.lifetime.start.p0(i64 8, ptr %12) #3
  call void @llvm.lifetime.start.p0(i64 8, ptr %13) #3
  call void @llvm.lifetime.start.p0(i64 208, ptr %14) #3
  %15 = load ptr, ptr %6, align 8
  call void @asn1_ctx_init(ptr noundef %14, i32 noundef 0, i1 noundef zeroext true, ptr noundef %15)
  %16 = load ptr, ptr %7, align 8
  %17 = load i32, ptr @proto_sv, align 4
  %18 = load ptr, ptr %5, align 8
  %19 = call ptr @proto_tree_add_item(ptr noundef %16, i32 noundef %17, ptr noundef %18, i32 noundef 0, i32 noundef -1, i32 noundef 0)
  store ptr %19, ptr %12, align 8
  %20 = load ptr, ptr %12, align 8
  %21 = load i32, ptr @ett_sv, align 4
  %22 = call ptr @proto_item_add_subtree(ptr noundef %20, i32 noundef %21)
  store ptr %22, ptr %13, align 8
  %23 = load ptr, ptr %6, align 8
  %24 = getelementptr inbounds nuw %struct._packet_info, ptr %23, i32 0, i32 1
  %25 = load ptr, ptr %24, align 8
  call void @col_set_str(ptr noundef %25, i32 noundef 35, ptr noundef @.str.84)
  %26 = load ptr, ptr %6, align 8
  %27 = getelementptr inbounds nuw %struct._packet_info, ptr %26, i32 0, i32 1
  %28 = load ptr, ptr %27, align 8
  call void @col_clear(ptr noundef %28, i32 noundef 25)
  %29 = load ptr, ptr %13, align 8
  %30 = load i32, ptr @hf_sv_appid, align 4
  %31 = load ptr, ptr %5, align 8
  %32 = load i32, ptr %9, align 4
  %33 = call ptr @proto_tree_add_item(ptr noundef %29, i32 noundef %30, ptr noundef %31, i32 noundef %32, i32 noundef 2, i32 noundef 0)
  %34 = load ptr, ptr %13, align 8
  %35 = load i32, ptr @hf_sv_length, align 4
  %36 = load ptr, ptr %5, align 8
  %37 = load i32, ptr %9, align 4
  %38 = add i32 %37, 2
  %39 = call ptr @proto_tree_add_item_ret_uint(ptr noundef %34, i32 noundef %35, ptr noundef %36, i32 noundef %38, i32 noundef 2, i32 noundef 0, ptr noundef %11)
  %40 = load ptr, ptr %13, align 8
  %41 = load ptr, ptr %5, align 8
  %42 = load i32, ptr %9, align 4
  %43 = add i32 %42, 4
  %44 = load i32, ptr @hf_sv_reserve1, align 4
  %45 = load i32, ptr @ett_reserve1, align 4
  %46 = call ptr @proto_tree_add_bitmask(ptr noundef %40, ptr noundef %41, i32 noundef %43, i32 noundef %44, i32 noundef %45, ptr noundef @dissect_sv.reserve1_flags, i32 noundef 0)
  %47 = load ptr, ptr %13, align 8
  %48 = load i32, ptr @hf_sv_reserve2, align 4
  %49 = load ptr, ptr %5, align 8
  %50 = load i32, ptr %9, align 4
  %51 = add i32 %50, 6
  %52 = call ptr @proto_tree_add_item(ptr noundef %47, i32 noundef %48, ptr noundef %49, i32 noundef %51, i32 noundef 2, i32 noundef 0)
  store i32 8, ptr %9, align 4
  %53 = load ptr, ptr %5, align 8
  %54 = load i32, ptr %11, align 4
  call void @set_actual_length(ptr noundef %53, i32 noundef %54)
  br label %55

55:                                               ; preds = %75, %4
  %56 = load ptr, ptr %5, align 8
  %57 = load i32, ptr %9, align 4
  %58 = call i32 @tvb_reported_length_remaining(ptr noundef %56, i32 noundef %57)
  %59 = icmp sgt i32 %58, 0
  br i1 %59, label %60, label %76

60:                                               ; preds = %55
  %61 = load i32, ptr %9, align 4
  store i32 %61, ptr %10, align 4
  %62 = load ptr, ptr %5, align 8
  %63 = load i32, ptr %9, align 4
  %64 = load ptr, ptr %13, align 8
  %65 = call i32 @dissect_sv_SampledValues(i1 noundef zeroext false, ptr noundef %62, i32 noundef %63, ptr noundef %14, ptr noundef %64, i32 noundef -1)
  store i32 %65, ptr %9, align 4
  %66 = load i32, ptr %9, align 4
  %67 = load i32, ptr %10, align 4
  %68 = icmp eq i32 %66, %67
  br i1 %68, label %69, label %75

69:                                               ; preds = %60
  %70 = load ptr, ptr %13, align 8
  %71 = load ptr, ptr %6, align 8
  %72 = load ptr, ptr %5, align 8
  %73 = load i32, ptr %9, align 4
  %74 = call ptr @proto_tree_add_expert(ptr noundef %70, ptr noundef %71, ptr noundef @ei_sv_zero_pdu, ptr noundef %72, i32 noundef %73, i32 noundef -1)
  br label %76

75:                                               ; preds = %60
  br label %55, !llvm.loop !6

76:                                               ; preds = %69, %55
  %77 = load i32, ptr @sv_tap, align 4
  %78 = load ptr, ptr %6, align 8
  call void @tap_queue_packet(i32 noundef %77, ptr noundef %78, ptr noundef @sv_data)
  %79 = load ptr, ptr %5, align 8
  %80 = call i32 @tvb_captured_length(ptr noundef %79)
  call void @llvm.lifetime.end.p0(i64 208, ptr %14) #3
  call void @llvm.lifetime.end.p0(i64 8, ptr %13) #3
  call void @llvm.lifetime.end.p0(i64 8, ptr %12) #3
  call void @llvm.lifetime.end.p0(i64 4, ptr %11) #3
  call void @llvm.lifetime.end.p0(i64 4, ptr %10) #3
  call void @llvm.lifetime.end.p0(i64 4, ptr %9) #3
  ret i32 %80
}