; Function Attrs: null_pointer_is_valid sspstrong uwtable
define internal i32 @dissect_sv(ptr noundef %0, ptr noundef %1, ptr noundef %2, ptr readnone captures(none) %3) #0 {
  %5 = alloca i32, align 4
  %6 = alloca %struct._asn1_ctx_t, align 8
  call void @llvm.lifetime.start.p0(i64 4, ptr nonnull %5) #3
  store i32 0, ptr %5, align 4
  call void @llvm.lifetime.start.p0(i64 208, ptr nonnull %6) #3
  call void @asn1_ctx_init(ptr noundef nonnull %6, i32 noundef 0, i1 noundef zeroext true, ptr noundef %1)
  %7 = load i32, ptr @proto_sv, align 4
  %8 = call ptr @proto_tree_add_item(ptr noundef %2, i32 noundef %7, ptr noundef %0, i32 noundef 0, i32 noundef -1, i32 noundef 0)
  %9 = load i32, ptr @ett_sv, align 4
  %10 = call ptr @proto_item_add_subtree(ptr noundef %8, i32 noundef %9)
  %11 = getelementptr inbounds nuw i8, ptr %1, i64 8
  %12 = load ptr, ptr %11, align 8
  call void @col_set_str(ptr noundef %12, i32 noundef 35, ptr noundef nonnull @.str.84)
  %13 = load ptr, ptr %11, align 8
  call void @col_clear(ptr noundef %13, i32 noundef 25)
  %14 = load i32, ptr @hf_sv_appid, align 4
  %15 = call ptr @proto_tree_add_item(ptr noundef %10, i32 noundef %14, ptr noundef %0, i32 noundef 0, i32 noundef 2, i32 noundef 0)
  %16 = load i32, ptr @hf_sv_length, align 4
  %17 = call ptr @proto_tree_add_item_ret_uint(ptr noundef %10, i32 noundef %16, ptr noundef %0, i32 noundef 2, i32 noundef 2, i32 noundef 0, ptr noundef nonnull %5)
  %18 = load i32, ptr @hf_sv_reserve1, align 4
  %19 = load i32, ptr @ett_reserve1, align 4
  %20 = call ptr @proto_tree_add_bitmask(ptr noundef %10, ptr noundef %0, i32 noundef 4, i32 noundef %18, i32 noundef %19, ptr noundef nonnull @dissect_sv.reserve1_flags, i32 noundef 0)
  %21 = load i32, ptr @hf_sv_reserve2, align 4
  %22 = call ptr @proto_tree_add_item(ptr noundef %10, i32 noundef %21, ptr noundef %0, i32 noundef 6, i32 noundef 2, i32 noundef 0)
  %23 = load i32, ptr %5, align 4
  call void @set_actual_length(ptr noundef %0, i32 noundef %23)
  br label %24

24:                                               ; preds = %27, %4
  %.0 = phi i32 [ 8, %4 ], [ %29, %27 ]
  %25 = call i32 @tvb_reported_length_remaining(ptr noundef %0, i32 noundef %.0)
  %26 = icmp sgt i32 %25, 0
  br i1 %26, label %27, label %.loopexit

27:                                               ; preds = %24
  %28 = load i32, ptr @ett_sv_SampledValues, align 4
  %29 = call i32 @dissect_ber_choice(ptr noundef nonnull %6, ptr noundef %10, ptr noundef %0, i32 noundef %.0, ptr noundef nonnull @SampledValues_choice, i32 noundef -1, i32 noundef %28, ptr noundef null)
  %30 = icmp eq i32 %29, %.0
  br i1 %30, label %31, label %24, !llvm.loop !6

31:                                               ; preds = %27
  %32 = call ptr @proto_tree_add_expert(ptr noundef %10, ptr noundef %1, ptr noundef nonnull @ei_sv_zero_pdu, ptr noundef %0, i32 noundef %.0, i32 noundef -1)
  br label %.loopexit

.loopexit:                                        ; preds = %24, %31
  %33 = load i32, ptr @sv_tap, align 4
  call void @tap_queue_packet(i32 noundef %33, ptr noundef %1, ptr noundef nonnull @sv_data)
  %34 = call i32 @tvb_captured_length(ptr noundef %0)
  call void @llvm.lifetime.end.p0(i64 208, ptr nonnull %6) #3
  call void @llvm.lifetime.end.p0(i64 4, ptr nonnull %5) #3
  ret i32 %34
}